target datalayout = "e-m:e-p270:32:32-p271:32:32-p272:64:64-i64:64-i128:128-f80:128-n8:16:32:64-S128"
target triple = "x86_64-pc-linux-gnu"

@.str.56 = private unnamed_addr constant [2 x i8] c"c\00", align 1
@.str.57 = private unnamed_addr constant [10 x i8] c"assembler\00", align 1
@.str.58 = private unnamed_addr constant [5 x i8] c"none\00", align 1
@.str.59 = private unnamed_addr constant [44 x i8] c"<command line>: unknown argument for -x: %s\00", align 1

; Function Attrs: nounwind uwtable
define internal i32 @parse_opt_x(ptr noundef %0) #0 {
  %2 = alloca i32, align 4
  %3 = alloca ptr, align 8
  store ptr %0, ptr %3, align 8, !tbaa !7
  %4 = load ptr, ptr %3, align 8, !tbaa !7
  %5 = call i32 @strcmp(ptr noundef %4, ptr noundef @.str.56) #13
  %6 = icmp ne i32 %5, 0
  br i1 %6, label %8, label %7

7:                                                ; preds = %1
  store i32 1, ptr %2, align 4
  br label %20

8:                                                ; preds = %1
  %9 = load ptr, ptr %3, align 8, !tbaa !7
  %10 = call i32 @strcmp(ptr noundef %9, ptr noundef @.str.57) #13
  %11 = icmp ne i32 %10, 0
  br i1 %11, label %13, label %12

12:                                               ; preds = %8
  store i32 2, ptr %2, align 4
  br label %20

13:                                               ; preds = %8
  %14 = load ptr, ptr %3, align 8, !tbaa !7
  %15 = call i32 @strcmp(ptr noundef %14, ptr noundef @.str.58) #13
  %16 = icmp ne i32 %15, 0
  br i1 %16, label %18, label %17

17:                                               ; preds = %13
  store i32 0, ptr %2, align 4
  br label %20

18:                                               ; preds = %13
  %19 = load ptr, ptr %3, align 8, !tbaa !7
  call void (ptr, ...) @error(ptr noundef @.str.59, ptr noundef %19) #12
  unreachable

20:                                               ; preds = %17, %12, %7
  %21 = load i32, ptr %2, align 4
  ret i32 %21
}