; Function Attrs: nounwind uwtable
define internal fastcc range(i32 0, 3) i32 @parse_opt_x(ptr noundef %0) unnamed_addr #3 {
sub_0:
  %1 = load i8, ptr %0, align 1
  %.not6 = icmp eq i8 %1, 99
  br i1 %.not6, label %.tail, label %.tail.thread

.tail:                                            ; preds = %sub_0
  %2 = getelementptr inbounds nuw i8, ptr %0, i64 1
  %3 = load i8, ptr %2, align 1
  %4 = icmp eq i8 %3, 0
  br i1 %4, label %9, label %.tail.thread

.tail.thread:                                     ; preds = %sub_0, %.tail
  %5 = tail call i32 @strcmp(ptr noundef nonnull dereferenceable(1) %0, ptr noundef nonnull dereferenceable(10) @.str.57) #19
  %.not4 = icmp eq i32 %5, 0
  br i1 %.not4, label %9, label %6

6:                                                ; preds = %.tail.thread
  %7 = tail call i32 @strcmp(ptr noundef nonnull dereferenceable(1) %0, ptr noundef nonnull dereferenceable(5) @.str.58) #19
  %.not5 = icmp eq i32 %7, 0
  br i1 %.not5, label %9, label %8

8:                                                ; preds = %6
  tail call void (ptr, ...) @error(ptr noundef nonnull @.str.59, ptr noundef nonnull %0) #20
  unreachable

9:                                                ; preds = %6, %.tail.thread, %.tail
  %.0 = phi i32 [ 1, %.tail ], [ 2, %.tail.thread ], [ 0, %6 ]
  ret i32 %.0
}